target datalayout = "e-m:e-p270:32:32-p271:32:32-p272:64:64-i64:64-i128:128-f80:128-n8:16:32:64-S128"
target triple = "x86_64-pc-linux-gnu"

%struct.expert_field = type { i32, i32 }
%struct._packet_info = type { ptr, ptr, i32, i32, %struct.nstime_t, %struct.nstime_t, %struct.nstime_t, i8, ptr, ptr, ptr, ptr, %struct._address, %struct._address, %struct._address, %struct._address, %struct._address, %struct._address, i32, ptr, i8, [3 x i8], %struct.anon, i32, i32, i32, i32, ptr, i8, ptr, ptr, i16, i16, i32, i32, i16, i32, i32, ptr, ptr, ptr, i8, i8, i16, i16, i16, i32, i16, i16, ptr, ptr, ptr, ptr, ptr, i32, i32 }
%struct.nstime_t = type { i64, i32 }
%struct._address = type { i32, i32, ptr, ptr }
%struct.anon = type { i8, [3 x i8] }

@ei_nas_5gs_extraneous_data = internal global %struct.expert_field zeroinitializer, align 4

; Function Attrs: null_pointer_is_valid sspstrong uwtable
define internal void @nas_5gs_sm_pdu_ses_mod_comp(ptr noundef %0, ptr noundef %1, ptr noundef %2, i32 noundef %3, i32 noundef %4) #0 {
  %6 = alloca ptr, align 8
  %7 = alloca ptr, align 8
  %8 = alloca ptr, align 8
  %9 = alloca i32, align 4
  %10 = alloca i32, align 4
  %11 = alloca i32, align 4
  %12 = alloca i32, align 4
  %13 = alloca i32, align 4
  %14 = alloca i32, align 4
  store ptr %0, ptr %6, align 8
  store ptr %1, ptr %7, align 8
  store ptr %2, ptr %8, align 8
  store i32 %3, ptr %9, align 4
  store i32 %4, ptr %10, align 4
  call void @llvm.lifetime.start.p0(i64 4, ptr %11) #11
  call void @llvm.lifetime.start.p0(i64 4, ptr %12) #11
  call void @llvm.lifetime.start.p0(i64 4, ptr %13) #11
  %15 = load i32, ptr %9, align 4
  store i32 %15, ptr %11, align 4
  %16 = load i32, ptr %10, align 4
  store i32 %16, ptr %13, align 4
  %17 = load ptr, ptr %8, align 8
  %18 = getelementptr inbounds nuw %struct._packet_info, ptr %17, i32 0, i32 46
  store i32 0, ptr %18, align 8
  %19 = load i32, ptr %13, align 4
  %20 = icmp sle i32 %19, 0
  br i1 %20, label %21, label %22

21:                                               ; preds = %5
  store i32 1, ptr %14, align 4
  br label %113

22:                                               ; preds = %5
  %23 = load ptr, ptr %6, align 8
  %24 = load ptr, ptr %7, align 8
  %25 = load ptr, ptr %8, align 8
  %26 = load i32, ptr %11, align 4
  %27 = load i32, ptr %13, align 4
  %28 = call zeroext i16 @elem_tlv_e(ptr noundef %23, ptr noundef %24, ptr noundef %25, i8 noundef zeroext 123, i32 noundef 11, i32 noundef 28, i32 noundef %26, i32 noundef %27, ptr noundef null)
  %29 = zext i16 %28 to i32
  store i32 %29, ptr %12, align 4
  %30 = icmp ugt i32 %29, 0
  br i1 %30, label %31, label %38

31:                                               ; preds = %22
  %32 = load i32, ptr %12, align 4
  %33 = load i32, ptr %11, align 4
  %34 = add i32 %33, %32
  store i32 %34, ptr %11, align 4
  %35 = load i32, ptr %12, align 4
  %36 = load i32, ptr %13, align 4
  %37 = sub i32 %36, %35
  store i32 %37, ptr %13, align 4
  br label %38

38:                                               ; preds = %31, %22
  %39 = load i32, ptr %13, align 4
  %40 = icmp sle i32 %39, 0
  br i1 %40, label %41, label %42

41:                                               ; preds = %38
  store i32 1, ptr %14, align 4
  br label %113

42:                                               ; preds = %38
  %43 = load ptr, ptr %6, align 8
  %44 = load ptr, ptr %7, align 8
  %45 = load ptr, ptr %8, align 8
  %46 = load i32, ptr %11, align 4
  %47 = call zeroext i16 @elem_tv(ptr noundef %43, ptr noundef %44, ptr noundef %45, i8 noundef zeroext 89, i32 noundef 18, i32 noundef 1, i32 noundef %46, ptr noundef null)
  %48 = zext i16 %47 to i32
  store i32 %48, ptr %12, align 4
  %49 = icmp ugt i32 %48, 0
  br i1 %49, label %50, label %57

50:                                               ; preds = %42
  %51 = load i32, ptr %12, align 4
  %52 = load i32, ptr %11, align 4
  %53 = add i32 %52, %51
  store i32 %53, ptr %11, align 4
  %54 = load i32, ptr %12, align 4
  %55 = load i32, ptr %13, align 4
  %56 = sub i32 %55, %54
  store i32 %56, ptr %13, align 4
  br label %57

57:                                               ; preds = %50, %42
  %58 = load i32, ptr %13, align 4
  %59 = icmp sle i32 %58, 0
  br i1 %59, label %60, label %61

60:                                               ; preds = %57
  store i32 1, ptr %14, align 4
  br label %113

61:                                               ; preds = %57
  %62 = load ptr, ptr %6, align 8
  %63 = load ptr, ptr %7, align 8
  %64 = load ptr, ptr %8, align 8
  %65 = load i32, ptr %11, align 4
  %66 = load i32, ptr %13, align 4
  %67 = call zeroext i16 @elem_tlv_e(ptr noundef %62, ptr noundef %63, ptr noundef %64, i8 noundef zeroext 123, i32 noundef 11, i32 noundef 28, i32 noundef %65, i32 noundef %66, ptr noundef null)
  %68 = zext i16 %67 to i32
  store i32 %68, ptr %12, align 4
  %69 = icmp ugt i32 %68, 0
  br i1 %69, label %70, label %77

70:                                               ; preds = %61
  %71 = load i32, ptr %12, align 4
  %72 = load i32, ptr %11, align 4
  %73 = add i32 %72, %71
  store i32 %73, ptr %11, align 4
  %74 = load i32, ptr %12, align 4
  %75 = load i32, ptr %13, align 4
  %76 = sub i32 %75, %74
  store i32 %76, ptr %13, align 4
  br label %77

77:                                               ; preds = %70, %61
  %78 = load i32, ptr %13, align 4
  %79 = icmp sle i32 %78, 0
  br i1 %79, label %80, label %81

80:                                               ; preds = %77
  store i32 1, ptr %14, align 4
  br label %113

81:                                               ; preds = %77
  %82 = load ptr, ptr %6, align 8
  %83 = load ptr, ptr %7, align 8
  %84 = load ptr, ptr %8, align 8
  %85 = load i32, ptr %11, align 4
  %86 = load i32, ptr %13, align 4
  %87 = call zeroext i16 @elem_tlv_e(ptr noundef %82, ptr noundef %83, ptr noundef %84, i8 noundef zeroext 116, i32 noundef 18, i32 noundef 25, i32 noundef %85, i32 noundef %86, ptr noundef null)
  %88 = zext i16 %87 to i32
  store i32 %88, ptr %12, align 4
  %89 = icmp ugt i32 %88, 0
  br i1 %89, label %90, label %97

90:                                               ; preds = %81
  %91 = load i32, ptr %12, align 4
  %92 = load i32, ptr %11, align 4
  %93 = add i32 %92, %91
  store i32 %93, ptr %11, align 4
  %94 = load i32, ptr %12, align 4
  %95 = load i32, ptr %13, align 4
  %96 = sub i32 %95, %94
  store i32 %96, ptr %13, align 4
  br label %97

97:                                               ; preds = %90, %81
  %98 = load i32, ptr %13, align 4
  %99 = icmp ugt i32 %98, 0
  br i1 %99, label %100, label %112

100:                                              ; preds = %97
  %101 = load ptr, ptr %7, align 8
  %102 = load ptr, ptr %8, align 8
  %103 = load ptr, ptr %6, align 8
  %104 = load i32, ptr %11, align 4
  %105 = load i32, ptr %13, align 4
  %106 = sub i32 %105, 0
  %107 = call ptr @proto_tree_add_expert(ptr noundef %101, ptr noundef %102, ptr noundef @ei_nas_5gs_extraneous_data, ptr noundef %103, i32 noundef %104, i32 noundef %106)
  %108 = load i32, ptr %13, align 4
  %109 = sub i32 %108, 0
  %110 = load i32, ptr %11, align 4
  %111 = add i32 %110, %109
  store i32 %111, ptr %11, align 4
  br label %112

112:                                              ; preds = %100, %97
  store i32 0, ptr %14, align 4
  br label %113

113:                                              ; preds = %112, %80, %60, %41, %21
  call void @llvm.lifetime.end.p0(i64 4, ptr %13) #11
  call void @llvm.lifetime.end.p0(i64 4, ptr %12) #11
  call void @llvm.lifetime.end.p0(i64 4, ptr %11) #11
  %114 = load i32, ptr %14, align 4
  switch i32 %114, label %116 [
    i32 0, label %115
    i32 1, label %115
  ]

115:                                              ; preds = %113, %113
  ret void

116:                                              ; preds = %113
  unreachable
}