; Function Attrs: null_pointer_is_valid sspstrong uwtable
define internal void @nas_5gs_sm_pdu_ses_mod_comp(ptr noundef %0, ptr noundef %1, ptr noundef initializes((384, 388)) %2, i32 noundef %3, i32 noundef %4) #0 {
  %6 = getelementptr inbounds nuw i8, ptr %2, i64 384
  store i32 0, ptr %6, align 8
  %7 = icmp slt i32 %4, 1
  br i1 %7, label %33, label %8

8:                                                ; preds = %5
  %9 = tail call zeroext i16 @elem_tlv_e(ptr noundef %0, ptr noundef %1, ptr noundef %2, i8 noundef zeroext 123, i32 noundef 11, i32 noundef 28, i32 noundef %3, i32 noundef %4, ptr noundef null)
  %10 = zext i16 %9 to i32
  %11 = sub nsw i32 %4, %10
  %12 = icmp slt i32 %11, 1
  br i1 %12, label %33, label %13

13:                                               ; preds = %8
  %14 = add i32 %3, %10
  %15 = tail call zeroext i16 @elem_tv(ptr noundef %0, ptr noundef %1, ptr noundef %2, i8 noundef zeroext 89, i32 noundef 18, i32 noundef 1, i32 noundef %14, ptr noundef null)
  %16 = zext i16 %15 to i32
  %17 = sub nsw i32 %11, %16
  %18 = icmp slt i32 %17, 1
  br i1 %18, label %33, label %19

19:                                               ; preds = %13
  %20 = add i32 %14, %16
  %21 = tail call zeroext i16 @elem_tlv_e(ptr noundef %0, ptr noundef %1, ptr noundef %2, i8 noundef zeroext 123, i32 noundef 11, i32 noundef 28, i32 noundef %20, i32 noundef %17, ptr noundef null)
  %22 = zext i16 %21 to i32
  %23 = sub nsw i32 %17, %22
  %24 = icmp slt i32 %23, 1
  br i1 %24, label %33, label %25

25:                                               ; preds = %19
  %26 = add i32 %20, %22
  %27 = tail call zeroext i16 @elem_tlv_e(ptr noundef %0, ptr noundef %1, ptr noundef %2, i8 noundef zeroext 116, i32 noundef 18, i32 noundef 25, i32 noundef %26, i32 noundef %23, ptr noundef null)
  %28 = zext i16 %27 to i32
  %.not61 = icmp eq i32 %23, %28
  br i1 %.not61, label %33, label %29

29:                                               ; preds = %25
  %30 = sub nsw i32 %23, %28
  %31 = add i32 %26, %28
  %32 = tail call ptr @proto_tree_add_expert(ptr noundef %1, ptr noundef %2, ptr noundef nonnull @ei_nas_5gs_extraneous_data, ptr noundef %0, i32 noundef %31, i32 noundef %30)
  br label %33

33:                                               ; preds = %25, %29, %19, %13, %8, %5
  ret void
}